(lp0
(I1
(I334
I436
I768
I527
tp1
tp2
a(I3
(I404
I204
I322
I105
tp3
tp4
a(I4
(lp5
I179
atp6
a(I5
(lp7
I60
aI60
aI60
atp8
a(I6
(lp9
I60
aI60
aI60
atp10
a(I7
F0.24835164835164836
tp11
a(I8
F0.35260930888575459
tp12
a(I9
(lp13
I60
aI60
aI60
atp14
a(I10
(lp15
I60
aI60
aI60
atp16
a(I11
F0.51904090267983072
tp17
a(I12
F0.5
tp18
a(I14
(lp19
I60
atp20
a(I15
(lp21
I60
atp22
a(I18
(lp23
I60
aI60
atp24
a(I19
(lp25
I60
aI60
atp26
a(I20
(lp27
I60
aI60
atp28
a(I21
(lp29
I60
aI60
atp30
a(I23
(I86
I103
I733
I509
tp31
tp32
a.