(lp0
(VdialogLeft
p1
(lp2
I60
aI60
aI101
atp3
a(VdialogSplit
p4
F0.47893258426966301
tp5
a(Vdialog
p6
(I164
I239
I719
I440
tp7
tp8
a(VmainRight
p9
(lp10
I60
aI60
aI81
atp11
a(VmainSplit
p12
F0.53361945636623798
tp13
a(Vmain
p14
(I189
I57
I713
I527
tp15
tp16
a.