(lp0
(I4
(lp1
I60
atp2
a(I5
(lp3
I60
aI60
aI60
atp4
a(I6
(lp5
I60
aI60
aI60
atp6
a(I9
(lp7
I60
aI60
aI60
atp8
a(I10
(lp9
I60
aI60
aI60
atp10
a(I14
(lp11
I60
atp12
a(I15
(lp13
I60
atp14
a(I18
(lp15
I60
aI60
atp16
a(I19
(lp17
I60
aI60
atp18
a(I20
(lp19
I60
aI60
atp20
a(I21
(lp21
I60
aI60
atp22
a(I23
(I130
I130
I1014
I759
tp23
tp24
a.