(lp0
(I4
(lp1
I60
atp2
a(I5
(lp3
I60
aI60
aI60
atp4
a(I6
(lp5
I60
aI60
aI60
atp6
a(I9
(lp7
I60
aI60
aI60
atp8
a(I10
(lp9
I60
aI60
aI60
atp10
a(I12
F0.57611940298507458
tp11
a(I14
(lp12
I60
atp13
a(I15
(lp14
I60
atp15
a(I18
(lp16
I60
aI60
atp17
a(I19
(lp18
I60
aI60
atp19
a(I20
(lp20
I60
aI60
atp21
a(I21
(lp22
I60
aI60
atp23
a(I23
(I761
I156
I1014
I759
tp24
tp25
a.