(lp0
(VprojectionPointsList
p1
(lp2
I60
aI60
aI60
aI60
atp3
a(VProjection view
p4
(I792
I193
I400
I332
tp5
tp6
a(VedittingPointsList
p7
(lp8
I60
aI60
aI60
aI60
atp9
a(VeditPointsDialog
p10
(I132
I174
I491
I296
tp11
tp12
a(g1
g2
tp13
a(g4
g5
tp14
a(g7
g8
tp15
a(g10
g11
tp16
a.