(lp1
(S'main.contentNode'
p2
c__builtin__
bytearray
p3
(V
S'latin-1'
tRp4
tp5
a(S'loadFileDialog.directoryNode'
p6
S'D:\\activ_tosh\\geatec\\QQuick\\Eden\\eden\\tutorialKivy\\tk012_hexEdit_appUsingModules'
p7
tp8
a(S'loadFileDialog.fileNameNode'
p9
S'aboutDialog.py'
p10
tp11
a(S'saveFileDialog.directoryNode'
p12
S'D:\\activ_tosh\\geatec\\QQuick\\Eden\\eden\\tutorialKivy\\tk012_hexEdit_appUsingModules'
p13
tp14
a(S'saveFileDialog.fileNameNode'
p15
S'aboutDialog.pyc'
p16
tp17
a.