(lp1
(I1
(lp2
I1478
aI684
atp3
a(I2
(lp4
F1
aF1
atp5
a(I3
(lp6
F0.42019631177375549
aF0.42270659402923211
atp7
a(I4
(lp8
F0.50093808630393999
atp9
a(I5
(lp10
F6.7341706699102932
aF1
atp11
a(I6
(lp12
F0.83478260869565213
aF4.9913043478260857
aF1
atp13
a.