(lp1
(I1
(lp2
I1011
aI760
atp3
a(I2
(lp4
F1
aF1
atp5
a(I3
(lp6
F1
aF0.99559471365638741
atp7
a(I4
(lp8
F0.50093808630393999
atp9
a(I5
(lp10
F3.9186189889025909
aF1
atp11
a(I6
(lp12
F0.83478260869565213
aF4.9913043478260857
aF1
atp13
a.