(lp1
(I1
(lp2
I1217
aI740
atp3
a(I2
(lp4
F5.5110565110565171
aF2.4594594594594619
atp5
a(I3
(lp6
F5.5186011930392453
aF2.4411467043278559
atp7
a(I4
(lp8
F0.29650491087249026
atp9
a(I5
(lp10
F1.0078226824676977
aF1.0040756404911486
atp11
a(I6
(lp12
F0.58597121592547186
aF0.32746752435527954
aF0.13228779136736518
atp13
a.