(lp1
(I1
(lp2
I1478
aI684
atp3
a(I2
(lp4
F1
aF1
atp5
a(I3
(lp6
F1.0059592054481061
aF1.0132203724257285
atp7
a(I4
(lp8
F0.99536260450171632
atp9
a(I5
(lp10
F1.0078226824676977
aF1.0040756404911486
atp11
a(I6
(lp12
F0.29866697719956981
aF1.176929292681129
aF0.31587726885718131
atp13
a.