(lp1
(I1
(lp2
I800
aI486
atp3
a(I2
(lp4
F1.1657462003670149
aF4.3964319942213024
atp5
a(I3
(lp6
F1.0283911671924288
aF1
atp7
a(I4
(lp8
F1
atp9
a(I5
(lp10
F3.197070572569904
aF2.1944074567243659
atp11
a(I6
(lp12
F0.92693735675355304
aF0.17044662522458581
aF0.16181429316519569
atp13
a.